target datalayout = "e-m:e-p270:32:32-p271:32:32-p272:64:64-i64:64-i128:128-f80:128-n8:16:32:64-S128"
target triple = "x86_64-unknown-linux-gnu"

%"class.cvc5::internal::Result" = type { i32, i32, %"class.std::__cxx11::basic_string" }
%"class.std::__cxx11::basic_string" = type { %"struct.std::__cxx11::basic_string<char>::_Alloc_hider", i64, %union.anon }
%"struct.std::__cxx11::basic_string<char>::_Alloc_hider" = type { ptr }
%union.anon = type { i64, [8 x i8] }

; Function Attrs: mustprogress uwtable
define hidden void @_ZN4cvc58internal6ResultC2ENS1_6StatusENS_18UnknownExplanationENSt7__cxx1112basic_stringIcSt11char_traitsIcESaIcEEE(ptr noundef nonnull align 8 dereferenceable(40) %this, i32 noundef %s, i32 noundef %unknownExplanation, ptr noundef %inputName) unnamed_addr #4 align 2 {
entry:
  %this.addr = alloca ptr, align 8
  %s.addr = alloca i32, align 4
  %unknownExplanation.addr = alloca i32, align 4
  %inputName.indirect_addr = alloca ptr, align 8
  store ptr %this, ptr %this.addr, align 8
  store i32 %s, ptr %s.addr, align 4
  store i32 %unknownExplanation, ptr %unknownExplanation.addr, align 4
  store ptr %inputName, ptr %inputName.indirect_addr, align 8
  %this1 = load ptr, ptr %this.addr, align 8
  %d_status = getelementptr inbounds %"class.cvc5::internal::Result", ptr %this1, i32 0, i32 0
  %0 = load i32, ptr %s.addr, align 4
  store i32 %0, ptr %d_status, align 8
  %d_unknownExplanation = getelementptr inbounds %"class.cvc5::internal::Result", ptr %this1, i32 0, i32 1
  %1 = load i32, ptr %unknownExplanation.addr, align 4
  store i32 %1, ptr %d_unknownExplanation, align 4
  %d_inputName = getelementptr inbounds %"class.cvc5::internal::Result", ptr %this1, i32 0, i32 2
  call void @_ZNSt7__cxx1112basic_stringIcSt11char_traitsIcESaIcEEC1ERKS4_(ptr noundef nonnull align 8 dereferenceable(32) %d_inputName, ptr noundef nonnull align 8 dereferenceable(32) %inputName)
  ret void
}