; Function Attrs: mustprogress uwtable
define hidden void @_ZN4cvc58internal6ResultC2ENS1_6StatusENS_18UnknownExplanationENSt7__cxx1112basic_stringIcSt11char_traitsIcESaIcEEE(ptr noundef nonnull align 8 dereferenceable(40) %this, i32 noundef %s, i32 noundef %unknownExplanation, ptr noundef nonnull %inputName) unnamed_addr #3 align 2 {
entry:
  store i32 %s, ptr %this, align 8
  %d_unknownExplanation = getelementptr inbounds i8, ptr %this, i64 4
  store i32 %unknownExplanation, ptr %d_unknownExplanation, align 4
  %d_inputName = getelementptr inbounds i8, ptr %this, i64 8
  tail call void @_ZNSt7__cxx1112basic_stringIcSt11char_traitsIcESaIcEEC1ERKS4_(ptr noundef nonnull align 8 dereferenceable(32) %d_inputName, ptr noundef nonnull align 8 dereferenceable(32) %inputName)
  ret void
}